; Function Attrs: null_pointer_is_valid sspstrong uwtable
define internal fastcc i32 @ngap_get_ranmode_id(ptr noundef readonly captures(none) %0, i32 noundef %1, ptr noundef %2) unnamed_addr #0 {
  %4 = getelementptr inbounds nuw i8, ptr %2, i64 408
  %5 = load ptr, ptr %4, align 8
  %6 = load i32, ptr @proto_ngap, align 4
  %7 = tail call ptr @p_get_proto_data(ptr noundef %5, ptr noundef %2, i32 noundef %6, i32 noundef 0)
  %.not.i = icmp eq ptr %7, null
  br i1 %.not.i, label %8, label %ngap_get_private_data.exit

8:                                                ; preds = %3
  %9 = load ptr, ptr %4, align 8
  %10 = tail call noalias dereferenceable_or_null(72) ptr @wmem_alloc0(ptr noundef %9, i64 noundef 72) #13
  %11 = getelementptr inbounds nuw i8, ptr %10, i64 24
  store i32 -1, ptr %11, align 8
  %12 = getelementptr inbounds nuw i8, ptr %10, i64 56
  store i8 -1, ptr %12, align 8
  %13 = load ptr, ptr %4, align 8
  %14 = load i32, ptr @proto_ngap, align 4
  tail call void @p_add_proto_data(ptr noundef %13, ptr noundef %2, i32 noundef %14, i32 noundef 0, ptr noundef %10)
  br label %ngap_get_private_data.exit

ngap_get_private_data.exit:                       ; preds = %3, %8
  %.0.i = phi ptr [ %7, %3 ], [ %10, %8 ]
  %15 = load ptr, ptr %.0.i, align 8
  %.not = icmp eq ptr %15, null
  br i1 %.not, label %addresses_equal.exit16, label %16

16:                                               ; preds = %ngap_get_private_data.exit
  %17 = load i32, ptr %0, align 8
  %18 = load i32, ptr %15, align 8
  %19 = icmp eq i32 %17, %18
  br i1 %19, label %20, label %addresses_equal.exit

20:                                               ; preds = %16
  %21 = getelementptr inbounds nuw i8, ptr %0, i64 4
  %22 = load i32, ptr %21, align 4
  %23 = getelementptr inbounds nuw i8, ptr %15, i64 4
  %24 = load i32, ptr %23, align 4
  %25 = icmp eq i32 %22, %24
  br i1 %25, label %26, label %addresses_equal.exit

26:                                               ; preds = %20
  %27 = icmp eq i32 %22, 0
  br i1 %27, label %35, label %28

28:                                               ; preds = %26
  %29 = getelementptr inbounds nuw i8, ptr %0, i64 8
  %30 = load ptr, ptr %29, align 8
  %31 = getelementptr inbounds nuw i8, ptr %15, i64 8
  %32 = load ptr, ptr %31, align 8
  %33 = sext i32 %22 to i64
  %bcmp.i = tail call i32 @bcmp(ptr %30, ptr %32, i64 %33)
  %34 = icmp eq i32 %bcmp.i, 0
  br i1 %34, label %35, label %addresses_equal.exit

35:                                               ; preds = %28, %26
  %36 = getelementptr inbounds nuw i8, ptr %15, i64 24
  %37 = load i32, ptr %36, align 8
  %38 = icmp eq i32 %1, %37
  br i1 %38, label %addresses_equal.exit16.sink.split, label %addresses_equal.exit

addresses_equal.exit:                             ; preds = %28, %20, %16, %35
  %39 = getelementptr inbounds nuw i8, ptr %15, i64 32
  %40 = load i32, ptr %39, align 8
  %41 = icmp eq i32 %17, %40
  br i1 %41, label %42, label %addresses_equal.exit16

42:                                               ; preds = %addresses_equal.exit
  %43 = getelementptr inbounds nuw i8, ptr %0, i64 4
  %44 = load i32, ptr %43, align 4
  %45 = getelementptr inbounds nuw i8, ptr %15, i64 36
  %46 = load i32, ptr %45, align 4
  %47 = icmp eq i32 %44, %46
  br i1 %47, label %48, label %addresses_equal.exit16

48:                                               ; preds = %42
  %49 = icmp eq i32 %44, 0
  br i1 %49, label %57, label %50

50:                                               ; preds = %48
  %51 = getelementptr inbounds nuw i8, ptr %0, i64 8
  %52 = load ptr, ptr %51, align 8
  %53 = getelementptr inbounds nuw i8, ptr %15, i64 40
  %54 = load ptr, ptr %53, align 8
  %55 = sext i32 %44 to i64
  %bcmp.i15 = tail call i32 @bcmp(ptr %52, ptr %54, i64 %55)
  %56 = icmp eq i32 %bcmp.i15, 0
  br i1 %56, label %57, label %addresses_equal.exit16

57:                                               ; preds = %50, %48
  %58 = getelementptr inbounds nuw i8, ptr %15, i64 56
  %59 = load i32, ptr %58, align 8
  %60 = icmp eq i32 %1, %59
  br i1 %60, label %addresses_equal.exit16.sink.split, label %addresses_equal.exit16

addresses_equal.exit16.sink.split:                ; preds = %57, %35
  %.sink19 = phi i64 [ 28, %35 ], [ 60, %57 ]
  %61 = getelementptr inbounds nuw i8, ptr %15, i64 %.sink19
  %62 = load i32, ptr %61, align 4
  br label %addresses_equal.exit16

addresses_equal.exit16:                           ; preds = %addresses_equal.exit16.sink.split, %50, %42, %addresses_equal.exit, %57, %ngap_get_private_data.exit
  %.0 = phi i32 [ -1, %57 ], [ -1, %ngap_get_private_data.exit ], [ -1, %addresses_equal.exit ], [ -1, %42 ], [ -1, %50 ], [ %62, %addresses_equal.exit16.sink.split ]
  ret i32 %.0
}